
Automated_Gardening.elf:     file format elf32-avr

Sections:
Idx Name          Size      VMA       LMA       File off  Algn
  0 .text         00000aac  00000000  00000000  00000074  2**1
                  CONTENTS, ALLOC, LOAD, READONLY, CODE
  1 .data         00000012  00800060  00000aac  00000b20  2**0
                  CONTENTS, ALLOC, LOAD, DATA
  2 .debug_aranges 00000040  00000000  00000000  00000b32  2**0
                  CONTENTS, READONLY, DEBUGGING
  3 .debug_pubnames 00000160  00000000  00000000  00000b72  2**0
                  CONTENTS, READONLY, DEBUGGING
  4 .debug_info   000008ae  00000000  00000000  00000cd2  2**0
                  CONTENTS, READONLY, DEBUGGING
  5 .debug_abbrev 0000040b  00000000  00000000  00001580  2**0
                  CONTENTS, READONLY, DEBUGGING
  6 .debug_line   00000b0a  00000000  00000000  0000198b  2**0
                  CONTENTS, READONLY, DEBUGGING
  7 .debug_frame  000001c0  00000000  00000000  00002498  2**2
                  CONTENTS, READONLY, DEBUGGING
  8 .debug_str    000002a5  00000000  00000000  00002658  2**0
                  CONTENTS, READONLY, DEBUGGING
  9 .debug_loc    00000679  00000000  00000000  000028fd  2**0
                  CONTENTS, READONLY, DEBUGGING
 10 .debug_ranges 00000030  00000000  00000000  00002f76  2**0
                  CONTENTS, READONLY, DEBUGGING

Disassembly of section .text:

00000000 <__vectors>:
   0:	0c 94 2a 00 	jmp	0x54	; 0x54 <__ctors_end>
   4:	0c 94 3f 00 	jmp	0x7e	; 0x7e <__bad_interrupt>
   8:	0c 94 3f 00 	jmp	0x7e	; 0x7e <__bad_interrupt>
   c:	0c 94 3f 00 	jmp	0x7e	; 0x7e <__bad_interrupt>
  10:	0c 94 3f 00 	jmp	0x7e	; 0x7e <__bad_interrupt>
  14:	0c 94 3f 00 	jmp	0x7e	; 0x7e <__bad_interrupt>
  18:	0c 94 3f 00 	jmp	0x7e	; 0x7e <__bad_interrupt>
  1c:	0c 94 3f 00 	jmp	0x7e	; 0x7e <__bad_interrupt>
  20:	0c 94 3f 00 	jmp	0x7e	; 0x7e <__bad_interrupt>
  24:	0c 94 3f 00 	jmp	0x7e	; 0x7e <__bad_interrupt>
  28:	0c 94 3f 00 	jmp	0x7e	; 0x7e <__bad_interrupt>
  2c:	0c 94 3f 00 	jmp	0x7e	; 0x7e <__bad_interrupt>
  30:	0c 94 3f 00 	jmp	0x7e	; 0x7e <__bad_interrupt>
  34:	0c 94 3f 00 	jmp	0x7e	; 0x7e <__bad_interrupt>
  38:	0c 94 3f 00 	jmp	0x7e	; 0x7e <__bad_interrupt>
  3c:	0c 94 3f 00 	jmp	0x7e	; 0x7e <__bad_interrupt>
  40:	0c 94 3f 00 	jmp	0x7e	; 0x7e <__bad_interrupt>
  44:	0c 94 3f 00 	jmp	0x7e	; 0x7e <__bad_interrupt>
  48:	0c 94 3f 00 	jmp	0x7e	; 0x7e <__bad_interrupt>
  4c:	0c 94 3f 00 	jmp	0x7e	; 0x7e <__bad_interrupt>
  50:	0c 94 3f 00 	jmp	0x7e	; 0x7e <__bad_interrupt>

00000054 <__ctors_end>:
  54:	11 24       	eor	r1, r1
  56:	1f be       	out	0x3f, r1	; 63
  58:	cf e5       	ldi	r28, 0x5F	; 95
  5a:	d8 e0       	ldi	r29, 0x08	; 8
  5c:	de bf       	out	0x3e, r29	; 62
  5e:	cd bf       	out	0x3d, r28	; 61

00000060 <__do_copy_data>:
  60:	10 e0       	ldi	r17, 0x00	; 0
  62:	a0 e6       	ldi	r26, 0x60	; 96
  64:	b0 e0       	ldi	r27, 0x00	; 0
  66:	ec ea       	ldi	r30, 0xAC	; 172
  68:	fa e0       	ldi	r31, 0x0A	; 10
  6a:	02 c0       	rjmp	.+4      	; 0x70 <.do_copy_data_start>

0000006c <.do_copy_data_loop>:
  6c:	05 90       	lpm	r0, Z+
  6e:	0d 92       	st	X+, r0

00000070 <.do_copy_data_start>:
  70:	a2 37       	cpi	r26, 0x72	; 114
  72:	b1 07       	cpc	r27, r17
  74:	d9 f7       	brne	.-10     	; 0x6c <.do_copy_data_loop>
  76:	0e 94 6b 01 	call	0x2d6	; 0x2d6 <main>
  7a:	0c 94 54 05 	jmp	0xaa8	; 0xaa8 <_exit>

0000007e <__bad_interrupt>:
  7e:	0c 94 00 00 	jmp	0	; 0x0 <__vectors>

00000082 <adc_init>:


void adc_init()
{
    
    ADMUX = ((0<<REFS0)|(0<<REFS1)|(0<<ADLAR)); 
  82:	17 b8       	out	0x07, r1	; 7

   
  
    ADCSRA = (1<<ADEN)|(1<<ADPS2)|(1<<ADPS1)|(1<<ADPS0);
  84:	87 e8       	ldi	r24, 0x87	; 135
  86:	86 b9       	out	0x06, r24	; 6
}
  88:	08 95       	ret

0000008a <adc_read>:

uint16_t adc_read(uint8_t ch)
{
   
    ch &= 0b00000111;  
    ADMUX = (ADMUX & 0xF8)|ch;    
  8a:	97 b1       	in	r25, 0x07	; 7
  8c:	87 70       	andi	r24, 0x07	; 7
  8e:	98 7f       	andi	r25, 0xF8	; 248
  90:	89 2b       	or	r24, r25
  92:	87 b9       	out	0x07, r24	; 7

   
  
    ADCSRA |= (1<<ADSC);
  94:	36 9a       	sbi	0x06, 6	; 6

    // wait for conversion to complete
    // ADSC becomes '0' again
    // till then, run loop continuously
    while(ADCSRA & (1<<ADSC));
  96:	36 99       	sbic	0x06, 6	; 6
  98:	fe cf       	rjmp	.-4      	; 0x96 <adc_read+0xc>

    return (ADC);
  9a:	24 b1       	in	r18, 0x04	; 4
  9c:	35 b1       	in	r19, 0x05	; 5
}
  9e:	c9 01       	movw	r24, r18
  a0:	08 95       	ret

000000a2 <lcd_write>:
static void lcd_write(uint8_t data,uint8_t rs) 
{
    unsigned char dataBits ;


    if (rs) {   /* write data        (RS=1, RW=0) */
  a2:	66 23       	and	r22, r22
  a4:	11 f0       	breq	.+4      	; 0xaa <lcd_write+0x8>
       lcd_rs_high();
  a6:	dc 9a       	sbi	0x1b, 4	; 27
  a8:	01 c0       	rjmp	.+2      	; 0xac <lcd_write+0xa>
    } else {    /* write instruction (RS=0, RW=0) */
       lcd_rs_low();
  aa:	dc 98       	cbi	0x1b, 4	; 27
    }
    lcd_rw_low();
  ac:	dd 98       	cbi	0x1b, 5	; 27
        LCD_DATA0_PORT = dataBits | 0x0F;
    }
    else
    {
        /* configure data pins as output */
        DDR(LCD_DATA0_PORT) |= _BV(LCD_DATA0_PIN);
  ae:	a4 9a       	sbi	0x14, 4	; 20
        DDR(LCD_DATA1_PORT) |= _BV(LCD_DATA1_PIN);
  b0:	a5 9a       	sbi	0x14, 5	; 20
        DDR(LCD_DATA2_PORT) |= _BV(LCD_DATA2_PIN);
  b2:	a6 9a       	sbi	0x14, 6	; 20
        DDR(LCD_DATA3_PORT) |= _BV(LCD_DATA3_PIN);
  b4:	a7 9a       	sbi	0x14, 7	; 20
        
        /* output high nibble first */
        LCD_DATA3_PORT &= ~_BV(LCD_DATA3_PIN);
  b6:	af 98       	cbi	0x15, 7	; 21
        LCD_DATA2_PORT &= ~_BV(LCD_DATA2_PIN);
  b8:	ae 98       	cbi	0x15, 6	; 21
        LCD_DATA1_PORT &= ~_BV(LCD_DATA1_PIN);
  ba:	ad 98       	cbi	0x15, 5	; 21
        LCD_DATA0_PORT &= ~_BV(LCD_DATA0_PIN);
  bc:	ac 98       	cbi	0x15, 4	; 21
    	if(data & 0x80) LCD_DATA3_PORT |= _BV(LCD_DATA3_PIN);
  be:	87 fd       	sbrc	r24, 7
  c0:	af 9a       	sbi	0x15, 7	; 21
    	if(data & 0x40) LCD_DATA2_PORT |= _BV(LCD_DATA2_PIN);
  c2:	86 fd       	sbrc	r24, 6
  c4:	ae 9a       	sbi	0x15, 6	; 21
    	if(data & 0x20) LCD_DATA1_PORT |= _BV(LCD_DATA1_PIN);
  c6:	85 fd       	sbrc	r24, 5
  c8:	ad 9a       	sbi	0x15, 5	; 21
    	if(data & 0x10) LCD_DATA0_PORT |= _BV(LCD_DATA0_PIN);   
  ca:	84 fd       	sbrc	r24, 4
  cc:	ac 9a       	sbi	0x15, 4	; 21

#if LCD_IO_MODE
/* toggle Enable Pin to initiate write */
static void toggle_e(void)
{
    lcd_e_high();
  ce:	de 9a       	sbi	0x1b, 6	; 27
    lcd_e_delay();
  d0:	00 c0       	rjmp	.+0      	; 0xd2 <lcd_write+0x30>
    lcd_e_low();
  d2:	de 98       	cbi	0x1b, 6	; 27
    	if(data & 0x20) LCD_DATA1_PORT |= _BV(LCD_DATA1_PIN);
    	if(data & 0x10) LCD_DATA0_PORT |= _BV(LCD_DATA0_PIN);   
        lcd_e_toggle();
        
        /* output low nibble */
        LCD_DATA3_PORT &= ~_BV(LCD_DATA3_PIN);
  d4:	af 98       	cbi	0x15, 7	; 21
        LCD_DATA2_PORT &= ~_BV(LCD_DATA2_PIN);
  d6:	ae 98       	cbi	0x15, 6	; 21
        LCD_DATA1_PORT &= ~_BV(LCD_DATA1_PIN);
  d8:	ad 98       	cbi	0x15, 5	; 21
        LCD_DATA0_PORT &= ~_BV(LCD_DATA0_PIN);
  da:	ac 98       	cbi	0x15, 4	; 21
    	if(data & 0x08) LCD_DATA3_PORT |= _BV(LCD_DATA3_PIN);
  dc:	83 fd       	sbrc	r24, 3
  de:	af 9a       	sbi	0x15, 7	; 21
    	if(data & 0x04) LCD_DATA2_PORT |= _BV(LCD_DATA2_PIN);
  e0:	82 fd       	sbrc	r24, 2
  e2:	ae 9a       	sbi	0x15, 6	; 21
    	if(data & 0x02) LCD_DATA1_PORT |= _BV(LCD_DATA1_PIN);
  e4:	81 fd       	sbrc	r24, 1
  e6:	ad 9a       	sbi	0x15, 5	; 21
    	if(data & 0x01) LCD_DATA0_PORT |= _BV(LCD_DATA0_PIN);
  e8:	80 fd       	sbrc	r24, 0
  ea:	ac 9a       	sbi	0x15, 4	; 21

#if LCD_IO_MODE
/* toggle Enable Pin to initiate write */
static void toggle_e(void)
{
    lcd_e_high();
  ec:	de 9a       	sbi	0x1b, 6	; 27
    lcd_e_delay();
  ee:	00 c0       	rjmp	.+0      	; 0xf0 <lcd_write+0x4e>
    lcd_e_low();
  f0:	de 98       	cbi	0x1b, 6	; 27
    	if(data & 0x02) LCD_DATA1_PORT |= _BV(LCD_DATA1_PIN);
    	if(data & 0x01) LCD_DATA0_PORT |= _BV(LCD_DATA0_PIN);
        lcd_e_toggle();        
        
        /* all data pins high (inactive) */
        LCD_DATA0_PORT |= _BV(LCD_DATA0_PIN);
  f2:	ac 9a       	sbi	0x15, 4	; 21
        LCD_DATA1_PORT |= _BV(LCD_DATA1_PIN);
  f4:	ad 9a       	sbi	0x15, 5	; 21
        LCD_DATA2_PORT |= _BV(LCD_DATA2_PIN);
  f6:	ae 9a       	sbi	0x15, 6	; 21
        LCD_DATA3_PORT |= _BV(LCD_DATA3_PIN);
  f8:	af 9a       	sbi	0x15, 7	; 21
    }
}
  fa:	08 95       	ret

000000fc <lcd_waitbusy>:
static inline void _delayFourCycles(unsigned int __count)
{
    if ( __count == 0 )    
        __asm__ __volatile__( "rjmp 1f\n 1:" );    // 2 cycles
    else
        __asm__ __volatile__ (
  fc:	80 e0       	ldi	r24, 0x00	; 0
  fe:	97 e2       	ldi	r25, 0x27	; 39
 100:	01 97       	sbiw	r24, 0x01	; 1
 102:	f1 f7       	brne	.-4      	; 0x100 <lcd_waitbusy+0x4>
    
    
    if (rs)
        lcd_rs_high();                       /* RS=1: read data      */
    else
        lcd_rs_low();                        /* RS=0: read busy flag */
 104:	84 e0       	ldi	r24, 0x04	; 4
 106:	90 e0       	ldi	r25, 0x00	; 0
 108:	01 97       	sbiw	r24, 0x01	; 1
 10a:	f1 f7       	brne	.-4      	; 0x108 <lcd_waitbusy+0xc>
 10c:	dc 98       	cbi	0x1b, 4	; 27
    lcd_rw_high();                           /* RW=1  read mode      */
 10e:	dd 9a       	sbi	0x1b, 5	; 27
        lcd_e_low();
    }
    else
    {
        /* configure data pins as input */
        DDR(LCD_DATA0_PORT) &= ~_BV(LCD_DATA0_PIN);
 110:	a4 98       	cbi	0x14, 4	; 20
        DDR(LCD_DATA1_PORT) &= ~_BV(LCD_DATA1_PIN);
 112:	a5 98       	cbi	0x14, 5	; 20
        DDR(LCD_DATA2_PORT) &= ~_BV(LCD_DATA2_PIN);
 114:	a6 98       	cbi	0x14, 6	; 20
        DDR(LCD_DATA3_PORT) &= ~_BV(LCD_DATA3_PIN);
 116:	a7 98       	cbi	0x14, 7	; 20
                
        /* read high nibble first */
        lcd_e_high();
 118:	de 9a       	sbi	0x1b, 6	; 27
        lcd_e_delay();        
 11a:	00 c0       	rjmp	.+0      	; 0x11c <lcd_waitbusy+0x20>
        data = 0;
        if ( PIN(LCD_DATA0_PORT) & _BV(LCD_DATA0_PIN) ) data |= 0x10;
 11c:	9c 9b       	sbis	0x13, 4	; 19
 11e:	02 c0       	rjmp	.+4      	; 0x124 <lcd_waitbusy+0x28>
 120:	80 e1       	ldi	r24, 0x10	; 16
 122:	01 c0       	rjmp	.+2      	; 0x126 <lcd_waitbusy+0x2a>
 124:	80 e0       	ldi	r24, 0x00	; 0
        if ( PIN(LCD_DATA1_PORT) & _BV(LCD_DATA1_PIN) ) data |= 0x20;
 126:	9d 99       	sbic	0x13, 5	; 19
 128:	80 62       	ori	r24, 0x20	; 32
        if ( PIN(LCD_DATA2_PORT) & _BV(LCD_DATA2_PIN) ) data |= 0x40;
 12a:	9e 99       	sbic	0x13, 6	; 19
 12c:	80 64       	ori	r24, 0x40	; 64
        if ( PIN(LCD_DATA3_PORT) & _BV(LCD_DATA3_PIN) ) data |= 0x80;
 12e:	9f 99       	sbic	0x13, 7	; 19
 130:	80 68       	ori	r24, 0x80	; 128
        lcd_e_low();
 132:	de 98       	cbi	0x1b, 6	; 27

        lcd_e_delay();                       /* Enable 500ns low       */
 134:	00 c0       	rjmp	.+0      	; 0x136 <lcd_waitbusy+0x3a>
    
        /* read low nibble */    
        lcd_e_high();
 136:	de 9a       	sbi	0x1b, 6	; 27
        lcd_e_delay();
 138:	00 c0       	rjmp	.+0      	; 0x13a <lcd_waitbusy+0x3e>
        if ( PIN(LCD_DATA0_PORT) & _BV(LCD_DATA0_PIN) ) data |= 0x01;
 13a:	9c 99       	sbic	0x13, 4	; 19
 13c:	81 60       	ori	r24, 0x01	; 1
        if ( PIN(LCD_DATA1_PORT) & _BV(LCD_DATA1_PIN) ) data |= 0x02;
 13e:	9d 99       	sbic	0x13, 5	; 19
 140:	82 60       	ori	r24, 0x02	; 2
        if ( PIN(LCD_DATA2_PORT) & _BV(LCD_DATA2_PIN) ) data |= 0x04;
 142:	9e 99       	sbic	0x13, 6	; 19
 144:	84 60       	ori	r24, 0x04	; 4
        if ( PIN(LCD_DATA3_PORT) & _BV(LCD_DATA3_PIN) ) data |= 0x08;        
 146:	9f 99       	sbic	0x13, 7	; 19
 148:	88 60       	ori	r24, 0x08	; 8
        lcd_e_low();
 14a:	de 98       	cbi	0x1b, 6	; 27
    delay(2);

    /* now read the address counter */
    return (lcd_read(0));  // return address counter
    
}/* lcd_waitbusy */
 14c:	08 95       	ret

0000014e <lcd_command>:
Send LCD controller instruction command
Input:   instruction to send to LCD controller, see HD44780 data sheet
Returns: none
*************************************************************************/
void lcd_command(uint8_t cmd)
{
 14e:	1f 93       	push	r17
 150:	18 2f       	mov	r17, r24
    lcd_waitbusy();
 152:	0e 94 7e 00 	call	0xfc	; 0xfc <lcd_waitbusy>
    lcd_write(cmd,0);
 156:	81 2f       	mov	r24, r17
 158:	60 e0       	ldi	r22, 0x00	; 0
 15a:	0e 94 51 00 	call	0xa2	; 0xa2 <lcd_write>
}
 15e:	1f 91       	pop	r17
 160:	08 95       	ret

00000162 <lcd_data>:
Send data byte to LCD controller 
Input:   data to send to LCD controller, see HD44780 data sheet
Returns: none
*************************************************************************/
void lcd_data(uint8_t data)
{
 162:	1f 93       	push	r17
 164:	18 2f       	mov	r17, r24
    lcd_waitbusy();
 166:	0e 94 7e 00 	call	0xfc	; 0xfc <lcd_waitbusy>
    lcd_write(data,1);
 16a:	81 2f       	mov	r24, r17
 16c:	61 e0       	ldi	r22, 0x01	; 1
 16e:	0e 94 51 00 	call	0xa2	; 0xa2 <lcd_write>
}
 172:	1f 91       	pop	r17
 174:	08 95       	ret

00000176 <lcd_gotoxy>:
{
#if LCD_LINES==1
    lcd_command((1<<LCD_DDRAM)+LCD_START_LINE1+x);
#endif
#if LCD_LINES==2
    if ( y==0 ) 
 176:	66 23       	and	r22, r22
 178:	11 f4       	brne	.+4      	; 0x17e <lcd_gotoxy+0x8>
        lcd_command((1<<LCD_DDRAM)+LCD_START_LINE1+x);
 17a:	80 58       	subi	r24, 0x80	; 128
 17c:	01 c0       	rjmp	.+2      	; 0x180 <lcd_gotoxy+0xa>
    else
        lcd_command((1<<LCD_DDRAM)+LCD_START_LINE2+x);
 17e:	80 54       	subi	r24, 0x40	; 64
 180:	0e 94 a7 00 	call	0x14e	; 0x14e <lcd_command>
 184:	08 95       	ret

00000186 <lcd_getxy>:

/*************************************************************************
*************************************************************************/
int lcd_getxy(void)
{
    return lcd_waitbusy();
 186:	0e 94 7e 00 	call	0xfc	; 0xfc <lcd_waitbusy>
}
 18a:	90 e0       	ldi	r25, 0x00	; 0
 18c:	08 95       	ret

0000018e <lcd_clear>:
/*************************************************************************
Clear display and set cursor to home position
*************************************************************************/
void lcd_clear(void)
{
    lcd_command(1<<LCD_CLR);
 18e:	81 e0       	ldi	r24, 0x01	; 1
 190:	0e 94 a7 00 	call	0x14e	; 0x14e <lcd_command>
}
 194:	08 95       	ret

00000196 <lcd_home>:
/*************************************************************************
Set cursor to home position
*************************************************************************/
void lcd_home(void)
{
    lcd_command(1<<LCD_HOME);
 196:	82 e0       	ldi	r24, 0x02	; 2
 198:	0e 94 a7 00 	call	0x14e	; 0x14e <lcd_command>
}
 19c:	08 95       	ret

0000019e <lcd_putc>:
Display character at current cursor position 
Input:    character to be displayed                                       
Returns:  none
*************************************************************************/
void lcd_putc(char c)
{
 19e:	1f 93       	push	r17
 1a0:	18 2f       	mov	r17, r24
    uint8_t pos;


    pos = lcd_waitbusy();   // read busy-flag and address counter
 1a2:	0e 94 7e 00 	call	0xfc	; 0xfc <lcd_waitbusy>
    if (c=='\n')
 1a6:	1a 30       	cpi	r17, 0x0A	; 10
 1a8:	49 f4       	brne	.+18     	; 0x1bc <lcd_putc+0x1e>

#if LCD_LINES==1
    addressCounter = 0;
#endif
#if LCD_LINES==2
    if ( pos < (LCD_START_LINE2) )
 1aa:	80 34       	cpi	r24, 0x40	; 64
 1ac:	10 f0       	brcs	.+4      	; 0x1b2 <lcd_putc+0x14>
 1ae:	80 e0       	ldi	r24, 0x00	; 0
 1b0:	01 c0       	rjmp	.+2      	; 0x1b4 <lcd_putc+0x16>
 1b2:	80 e4       	ldi	r24, 0x40	; 64
        addressCounter = LCD_START_LINE4;
    else 
        addressCounter = LCD_START_LINE1;
#endif
#endif
    lcd_command((1<<LCD_DDRAM)+addressCounter);
 1b4:	80 58       	subi	r24, 0x80	; 128
 1b6:	0e 94 a7 00 	call	0x14e	; 0x14e <lcd_command>
 1ba:	04 c0       	rjmp	.+8      	; 0x1c4 <lcd_putc+0x26>
            lcd_write((1<<LCD_DDRAM)+LCD_START_LINE1,0);
        }
#endif
        lcd_waitbusy();
#endif
        lcd_write(c, 1);
 1bc:	81 2f       	mov	r24, r17
 1be:	61 e0       	ldi	r22, 0x01	; 1
 1c0:	0e 94 51 00 	call	0xa2	; 0xa2 <lcd_write>
    }

}/* lcd_putc */
 1c4:	1f 91       	pop	r17
 1c6:	08 95       	ret

000001c8 <lcd_string>:
Input:    string to be displayed
Returns:  none
*************************************************************************/
void lcd_string(const char *s)
/* print string on lcd (no auto linefeed) */
{
 1c8:	cf 93       	push	r28
 1ca:	df 93       	push	r29
 1cc:	ec 01       	movw	r28, r24
 1ce:	02 c0       	rjmp	.+4      	; 0x1d4 <lcd_string+0xc>
    register char c;

    while ( (c = *s++) ) {
        lcd_putc(c);
 1d0:	0e 94 cf 00 	call	0x19e	; 0x19e <lcd_putc>
void lcd_string(const char *s)
/* print string on lcd (no auto linefeed) */
{
    register char c;

    while ( (c = *s++) ) {
 1d4:	89 91       	ld	r24, Y+
 1d6:	88 23       	and	r24, r24
 1d8:	d9 f7       	brne	.-10     	; 0x1d0 <lcd_string+0x8>
        lcd_putc(c);
    }

}/* lcd_string */
 1da:	df 91       	pop	r29
 1dc:	cf 91       	pop	r28
 1de:	08 95       	ret

000001e0 <lcd_puts_p>:
Input:     string from program memory be be displayed                                        
Returns:   none
*************************************************************************/
void lcd_puts_p(const char *progmem_s)
/* print string from program memory on lcd (no auto linefeed) */
{
 1e0:	cf 93       	push	r28
 1e2:	df 93       	push	r29
 1e4:	ec 01       	movw	r28, r24
 1e6:	02 c0       	rjmp	.+4      	; 0x1ec <lcd_puts_p+0xc>
    register char c;

    while ( (c = pgm_read_byte(progmem_s++)) ) {
        lcd_putc(c);
 1e8:	0e 94 cf 00 	call	0x19e	; 0x19e <lcd_putc>
 1ec:	fe 01       	movw	r30, r28
void lcd_puts_p(const char *progmem_s)
/* print string from program memory on lcd (no auto linefeed) */
{
    register char c;

    while ( (c = pgm_read_byte(progmem_s++)) ) {
 1ee:	21 96       	adiw	r28, 0x01	; 1
 1f0:	84 91       	lpm	r24, Z+
 1f2:	88 23       	and	r24, r24
 1f4:	c9 f7       	brne	.-14     	; 0x1e8 <lcd_puts_p+0x8>
        lcd_putc(c);
    }

}/* lcd_puts_p */
 1f6:	df 91       	pop	r29
 1f8:	cf 91       	pop	r28
 1fa:	08 95       	ret

000001fc <lcd_string_P>:
Input:     string from program memory be be displayed                                        
Returns:   none
*************************************************************************/
void lcd_string_P(const char *progmem_s)
/* print string from program memory on lcd (no auto linefeed) */
{
 1fc:	cf 93       	push	r28
 1fe:	df 93       	push	r29
 200:	ec 01       	movw	r28, r24
 202:	02 c0       	rjmp	.+4      	; 0x208 <lcd_string_P+0xc>
    register char c;

    while ( (c = pgm_read_byte(progmem_s++)) ) {
        lcd_putc(c);
 204:	0e 94 cf 00 	call	0x19e	; 0x19e <lcd_putc>
 208:	fe 01       	movw	r30, r28
void lcd_string_P(const char *progmem_s)
/* print string from program memory on lcd (no auto linefeed) */
{
    register char c;

    while ( (c = pgm_read_byte(progmem_s++)) ) {
 20a:	21 96       	adiw	r28, 0x01	; 1
 20c:	84 91       	lpm	r24, Z+
 20e:	88 23       	and	r24, r24
 210:	c9 f7       	brne	.-14     	; 0x204 <lcd_string_P+0x8>
        lcd_putc(c);
    }

}/* lcd_puts_p */
 212:	df 91       	pop	r29
 214:	cf 91       	pop	r28
 216:	08 95       	ret

00000218 <lcd_init>:
        DDR(LCD_E_PORT)     |= _BV(LCD_E_PIN);
    }
    else
    {
        /* configure all port bits as output (LCD data and control lines on different ports */
        DDR(LCD_RS_PORT)    |= _BV(LCD_RS_PIN);
 218:	d4 9a       	sbi	0x1a, 4	; 26
        DDR(LCD_RW_PORT)    |= _BV(LCD_RW_PIN);
 21a:	d5 9a       	sbi	0x1a, 5	; 26
        DDR(LCD_E_PORT)     |= _BV(LCD_E_PIN);
 21c:	d6 9a       	sbi	0x1a, 6	; 26
        DDR(LCD_DATA0_PORT) |= _BV(LCD_DATA0_PIN);
 21e:	a4 9a       	sbi	0x14, 4	; 20
        DDR(LCD_DATA1_PORT) |= _BV(LCD_DATA1_PIN);
 220:	a5 9a       	sbi	0x14, 5	; 20
        DDR(LCD_DATA2_PORT) |= _BV(LCD_DATA2_PIN);
 222:	a6 9a       	sbi	0x14, 6	; 20
        DDR(LCD_DATA3_PORT) |= _BV(LCD_DATA3_PIN);
 224:	a7 9a       	sbi	0x14, 7	; 20
static inline void _delayFourCycles(unsigned int __count)
{
    if ( __count == 0 )    
        __asm__ __volatile__( "rjmp 1f\n 1:" );    // 2 cycles
    else
        __asm__ __volatile__ (
 226:	80 e0       	ldi	r24, 0x00	; 0
 228:	9d e7       	ldi	r25, 0x7D	; 125
 22a:	01 97       	sbiw	r24, 0x01	; 1
 22c:	f1 f7       	brne	.-4      	; 0x22a <lcd_init+0x12>
        DDR(LCD_DATA3_PORT) |= _BV(LCD_DATA3_PIN);
    }
    delay(16000);        /* wait 16ms or more after power-on       */
    
    /* initial write to lcd is 8bit */
    LCD_DATA1_PORT |= _BV(LCD_DATA1_PIN);  // _BV(LCD_FUNCTION)>>4;
 22e:	ad 9a       	sbi	0x15, 5	; 21
    LCD_DATA0_PORT |= _BV(LCD_DATA0_PIN);  // _BV(LCD_FUNCTION_8BIT)>>4;
 230:	ac 9a       	sbi	0x15, 4	; 21

#if LCD_IO_MODE
/* toggle Enable Pin to initiate write */
static void toggle_e(void)
{
    lcd_e_high();
 232:	de 9a       	sbi	0x1b, 6	; 27
    lcd_e_delay();
 234:	00 c0       	rjmp	.+0      	; 0x236 <lcd_init+0x1e>
    lcd_e_low();
 236:	de 98       	cbi	0x1b, 6	; 27
static inline void _delayFourCycles(unsigned int __count)
{
    if ( __count == 0 )    
        __asm__ __volatile__( "rjmp 1f\n 1:" );    // 2 cycles
    else
        __asm__ __volatile__ (
 238:	80 e0       	ldi	r24, 0x00	; 0
 23a:	97 e2       	ldi	r25, 0x27	; 39
 23c:	01 97       	sbiw	r24, 0x01	; 1
 23e:	f1 f7       	brne	.-4      	; 0x23c <lcd_init+0x24>

#if LCD_IO_MODE
/* toggle Enable Pin to initiate write */
static void toggle_e(void)
{
    lcd_e_high();
 240:	de 9a       	sbi	0x1b, 6	; 27
    lcd_e_delay();
 242:	00 c0       	rjmp	.+0      	; 0x244 <lcd_init+0x2c>
    lcd_e_low();
 244:	de 98       	cbi	0x1b, 6	; 27
static inline void _delayFourCycles(unsigned int __count)
{
    if ( __count == 0 )    
        __asm__ __volatile__( "rjmp 1f\n 1:" );    // 2 cycles
    else
        __asm__ __volatile__ (
 246:	80 e8       	ldi	r24, 0x80	; 128
 248:	90 e0       	ldi	r25, 0x00	; 0
 24a:	fc 01       	movw	r30, r24
 24c:	31 97       	sbiw	r30, 0x01	; 1
 24e:	f1 f7       	brne	.-4      	; 0x24c <lcd_init+0x34>

#if LCD_IO_MODE
/* toggle Enable Pin to initiate write */
static void toggle_e(void)
{
    lcd_e_high();
 250:	de 9a       	sbi	0x1b, 6	; 27
    lcd_e_delay();
 252:	00 c0       	rjmp	.+0      	; 0x254 <lcd_init+0x3c>
    lcd_e_low();
 254:	de 98       	cbi	0x1b, 6	; 27
static inline void _delayFourCycles(unsigned int __count)
{
    if ( __count == 0 )    
        __asm__ __volatile__( "rjmp 1f\n 1:" );    // 2 cycles
    else
        __asm__ __volatile__ (
 256:	fc 01       	movw	r30, r24
 258:	31 97       	sbiw	r30, 0x01	; 1
 25a:	f1 f7       	brne	.-4      	; 0x258 <lcd_init+0x40>
    /* repeat last command a third time */
    lcd_e_toggle();      
    delay(64);           /* delay, busy flag can't be checked here */

    /* now configure for 4bit mode */
    LCD_DATA0_PORT &= ~_BV(LCD_DATA0_PIN);   // LCD_FUNCTION_4BIT_1LINE>>4
 25c:	ac 98       	cbi	0x15, 4	; 21

#if LCD_IO_MODE
/* toggle Enable Pin to initiate write */
static void toggle_e(void)
{
    lcd_e_high();
 25e:	de 9a       	sbi	0x1b, 6	; 27
    lcd_e_delay();
 260:	00 c0       	rjmp	.+0      	; 0x262 <lcd_init+0x4a>
    lcd_e_low();
 262:	de 98       	cbi	0x1b, 6	; 27
static inline void _delayFourCycles(unsigned int __count)
{
    if ( __count == 0 )    
        __asm__ __volatile__( "rjmp 1f\n 1:" );    // 2 cycles
    else
        __asm__ __volatile__ (
 264:	01 97       	sbiw	r24, 0x01	; 1
 266:	f1 f7       	brne	.-4      	; 0x264 <lcd_init+0x4c>
    /* Display with KS0073 controller requires special commands for enabling 4 line mode */
	lcd_command(KS0073_EXTENDED_FUNCTION_REGISTER_ON);
	lcd_command(KS0073_4LINES_MODE);
	lcd_command(KS0073_EXTENDED_FUNCTION_REGISTER_OFF);
#else
    lcd_command(LCD_FUNCTION_DEFAULT);      /* function set: display lines  */
 268:	88 e2       	ldi	r24, 0x28	; 40
 26a:	0e 94 a7 00 	call	0x14e	; 0x14e <lcd_command>
#endif
    lcd_command(LCD_DISP_OFF);              /* display off                  */
 26e:	88 e0       	ldi	r24, 0x08	; 8
 270:	0e 94 a7 00 	call	0x14e	; 0x14e <lcd_command>
    lcd_clear();                           /* display clear                */ 
 274:	0e 94 c7 00 	call	0x18e	; 0x18e <lcd_clear>
    lcd_command(LCD_MODE_DEFAULT);          /* set entry mode               */
 278:	86 e0       	ldi	r24, 0x06	; 6
 27a:	0e 94 a7 00 	call	0x14e	; 0x14e <lcd_command>
    lcd_command(dispAttr);                  /* display/cursor control       */
 27e:	8c e0       	ldi	r24, 0x0C	; 12
 280:	0e 94 a7 00 	call	0x14e	; 0x14e <lcd_command>

}/* lcd_init */
 284:	08 95       	ret

00000286 <pwm_init>:
void pwm_init()
{



	TCCR0=0x69;	
 286:	89 e6       	ldi	r24, 0x69	; 105
 288:	83 bf       	out	0x33, r24	; 51
	DDRB|=(1<<PB3);
 28a:	bb 9a       	sbi	0x17, 3	; 23
}
 28c:	08 95       	ret

0000028e <pwm>:



void pwm(uint8_t duty)
{
	OCR0=duty;
 28e:	8c bf       	out	0x3c, r24	; 60
	
}
 290:	08 95       	ret

00000292 <lcd_num>:

/*************************************************************************
Snumber display
*************************************************************************/
void lcd_num(long num)
{
 292:	0f 93       	push	r16
 294:	1f 93       	push	r17
 296:	df 93       	push	r29
 298:	cf 93       	push	r28
 29a:	cd b7       	in	r28, 0x3d	; 61
 29c:	de b7       	in	r29, 0x3e	; 62
 29e:	27 97       	sbiw	r28, 0x07	; 7
 2a0:	0f b6       	in	r0, 0x3f	; 63
 2a2:	f8 94       	cli
 2a4:	de bf       	out	0x3e, r29	; 62
 2a6:	0f be       	out	0x3f, r0	; 63
 2a8:	cd bf       	out	0x3d, r28	; 61
char buffer[7];

 ltoa( num , buffer, 10);
 2aa:	8e 01       	movw	r16, r28
 2ac:	0f 5f       	subi	r16, 0xFF	; 255
 2ae:	1f 4f       	sbci	r17, 0xFF	; 255
 2b0:	a8 01       	movw	r20, r16
 2b2:	2a e0       	ldi	r18, 0x0A	; 10
 2b4:	30 e0       	ldi	r19, 0x00	; 0
 2b6:	0e 94 e6 04 	call	0x9cc	; 0x9cc <ltoa>
    lcd_string(buffer);
 2ba:	c8 01       	movw	r24, r16
 2bc:	0e 94 e4 00 	call	0x1c8	; 0x1c8 <lcd_string>
}
 2c0:	27 96       	adiw	r28, 0x07	; 7
 2c2:	0f b6       	in	r0, 0x3f	; 63
 2c4:	f8 94       	cli
 2c6:	de bf       	out	0x3e, r29	; 62
 2c8:	0f be       	out	0x3f, r0	; 63
 2ca:	cd bf       	out	0x3d, r28	; 61
 2cc:	cf 91       	pop	r28
 2ce:	df 91       	pop	r29
 2d0:	1f 91       	pop	r17
 2d2:	0f 91       	pop	r16
 2d4:	08 95       	ret

000002d6 <main>:
#include "adc.h"
#include "lcd.h"
#include "pwm.h"

int main()
{
 2d6:	ff 92       	push	r15
 2d8:	0f 93       	push	r16
 2da:	1f 93       	push	r17
 2dc:	cf 93       	push	r28
 2de:	df 93       	push	r29


void adc_init()
{
    
    ADMUX = ((0<<REFS0)|(0<<REFS1)|(0<<ADLAR)); 
 2e0:	17 b8       	out	0x07, r1	; 7

   
  
    ADCSRA = (1<<ADEN)|(1<<ADPS2)|(1<<ADPS1)|(1<<ADPS0);
 2e2:	87 e8       	ldi	r24, 0x87	; 135
 2e4:	86 b9       	out	0x06, r24	; 6

	adc_init();	//initializing the adc
	lcd_init();	//initializing the lcd
 2e6:	0e 94 0c 01 	call	0x218	; 0x218 <lcd_init>
void pwm_init()
{



	TCCR0=0x69;	
 2ea:	89 e6       	ldi	r24, 0x69	; 105
 2ec:	83 bf       	out	0x33, r24	; 51
	DDRB|=(1<<PB3);
 2ee:	bb 9a       	sbi	0x17, 3	; 23



void pwm(uint8_t duty)
{
	OCR0=duty;
 2f0:	84 eb       	ldi	r24, 0xB4	; 180
 2f2:	f8 2e       	mov	r15, r24
	int a,b,c;
	
	while (1)
	{
	
	a=adc_read(0);		//Soil_Sensor is connected to PortA pin0
 2f4:	80 e0       	ldi	r24, 0x00	; 0
 2f6:	0e 94 45 00 	call	0x8a	; 0x8a <adc_read>
	b=adc_read(1);		//LM35 is connected to POrtA pin1
 2fa:	81 e0       	ldi	r24, 0x01	; 1
 2fc:	0e 94 45 00 	call	0x8a	; 0x8a <adc_read>
	b=b*0.488;			//converting value from lm35 to degree C 
	c=read(portd,0);	//taking input from PIR sensor
 300:	84 e0       	ldi	r24, 0x04	; 4
 302:	90 e0       	ldi	r25, 0x00	; 0
 304:	60 e0       	ldi	r22, 0x00	; 0
 306:	70 e0       	ldi	r23, 0x00	; 0
 308:	0e 94 60 02 	call	0x4c0	; 0x4c0 <read>
 30c:	01 e0       	ldi	r16, 0x01	; 1
 30e:	10 e0       	ldi	r17, 0x00	; 0
	
	
	
	for(int i=1;i<=2;i++)
	{
		if(i==1)
 310:	01 30       	cpi	r16, 0x01	; 1
 312:	11 05       	cpc	r17, r1
 314:	09 f0       	breq	.+2      	; 0x318 <main+0x42>
 316:	69 c0       	rjmp	.+210    	; 0x3ea <main+0x114>
 318:	2c c0       	rjmp	.+88     	; 0x372 <main+0x9c>
 31a:	fc be       	out	0x3c, r15	; 60
            while(a>2000)
			{
	
				pwm(180);
		
				write(portb,7,h);
 31c:	82 e0       	ldi	r24, 0x02	; 2
 31e:	90 e0       	ldi	r25, 0x00	; 0
 320:	67 e0       	ldi	r22, 0x07	; 7
 322:	70 e0       	ldi	r23, 0x00	; 0
 324:	41 e0       	ldi	r20, 0x01	; 1
 326:	50 e0       	ldi	r21, 0x00	; 0
 328:	0e 94 cc 02 	call	0x598	; 0x598 <write>
		
				write(portd,6,h);
 32c:	84 e0       	ldi	r24, 0x04	; 4
 32e:	90 e0       	ldi	r25, 0x00	; 0
 330:	66 e0       	ldi	r22, 0x06	; 6
 332:	70 e0       	ldi	r23, 0x00	; 0
 334:	41 e0       	ldi	r20, 0x01	; 1
 336:	50 e0       	ldi	r21, 0x00	; 0
 338:	0e 94 cc 02 	call	0x598	; 0x598 <write>
				write(portd,7,l);
 33c:	84 e0       	ldi	r24, 0x04	; 4
 33e:	90 e0       	ldi	r25, 0x00	; 0
 340:	67 e0       	ldi	r22, 0x07	; 7
 342:	70 e0       	ldi	r23, 0x00	; 0
 344:	40 e0       	ldi	r20, 0x00	; 0
 346:	50 e0       	ldi	r21, 0x00	; 0
 348:	0e 94 cc 02 	call	0x598	; 0x598 <write>
		

				lcd_gotoxy(0,0);	//lcd_gotoxy(column,row);
 34c:	80 e0       	ldi	r24, 0x00	; 0
 34e:	60 e0       	ldi	r22, 0x00	; 0
 350:	0e 94 bb 00 	call	0x176	; 0x176 <lcd_gotoxy>
				lcd_string("Wat.");
 354:	80 e6       	ldi	r24, 0x60	; 96
 356:	90 e0       	ldi	r25, 0x00	; 0
 358:	0e 94 e4 00 	call	0x1c8	; 0x1c8 <lcd_string>
				
				lcd_gotoxy(0,1);
 35c:	80 e0       	ldi	r24, 0x00	; 0
 35e:	61 e0       	ldi	r22, 0x01	; 1
 360:	0e 94 bb 00 	call	0x176	; 0x176 <lcd_gotoxy>
				lcd_num(a);
 364:	be 01       	movw	r22, r28
 366:	88 27       	eor	r24, r24
 368:	77 fd       	sbrc	r23, 7
 36a:	80 95       	com	r24
 36c:	98 2f       	mov	r25, r24
 36e:	0e 94 49 01 	call	0x292	; 0x292 <lcd_num>
                a=adc_read(0);
 372:	80 e0       	ldi	r24, 0x00	; 0
 374:	0e 94 45 00 	call	0x8a	; 0x8a <adc_read>
 378:	ec 01       	movw	r28, r24
	for(int i=1;i<=2;i++)
	{
		if(i==1)
		{
			a=adc_read(0);
            while(a>2000)
 37a:	87 e0       	ldi	r24, 0x07	; 7
 37c:	c1 3d       	cpi	r28, 0xD1	; 209
 37e:	d8 07       	cpc	r29, r24
 380:	64 f6       	brge	.-104    	; 0x31a <main+0x44>

			}

	
	
			if(a<2000)	//if the soil doesn't require water, it will stay in this loop
 382:	87 e0       	ldi	r24, 0x07	; 7
 384:	c0 3d       	cpi	r28, 0xD0	; 208
 386:	d8 07       	cpc	r29, r24
 388:	09 f4       	brne	.+2      	; 0x38c <main+0xb6>
 38a:	93 c0       	rjmp	.+294    	; 0x4b2 <main+0x1dc>
			{
			
				
				write(portd,6,l);	//turning off the motor
 38c:	84 e0       	ldi	r24, 0x04	; 4
 38e:	90 e0       	ldi	r25, 0x00	; 0
 390:	66 e0       	ldi	r22, 0x06	; 6
 392:	70 e0       	ldi	r23, 0x00	; 0
 394:	40 e0       	ldi	r20, 0x00	; 0
 396:	50 e0       	ldi	r21, 0x00	; 0
 398:	0e 94 cc 02 	call	0x598	; 0x598 <write>
				write(portd,7,l);
 39c:	84 e0       	ldi	r24, 0x04	; 4
 39e:	90 e0       	ldi	r25, 0x00	; 0
 3a0:	67 e0       	ldi	r22, 0x07	; 7
 3a2:	70 e0       	ldi	r23, 0x00	; 0
 3a4:	40 e0       	ldi	r20, 0x00	; 0
 3a6:	50 e0       	ldi	r21, 0x00	; 0
 3a8:	0e 94 cc 02 	call	0x598	; 0x598 <write>
				
				write(portb,7,l);	//turning off the power supply
 3ac:	82 e0       	ldi	r24, 0x02	; 2
 3ae:	90 e0       	ldi	r25, 0x00	; 0
 3b0:	67 e0       	ldi	r22, 0x07	; 7
 3b2:	70 e0       	ldi	r23, 0x00	; 0
 3b4:	40 e0       	ldi	r20, 0x00	; 0
 3b6:	50 e0       	ldi	r21, 0x00	; 0
 3b8:	0e 94 cc 02 	call	0x598	; 0x598 <write>
				

				lcd_gotoxy(0,0);	//lcd_gotoxy(column,row)
 3bc:	80 e0       	ldi	r24, 0x00	; 0
 3be:	60 e0       	ldi	r22, 0x00	; 0
 3c0:	0e 94 bb 00 	call	0x176	; 0x176 <lcd_gotoxy>
				lcd_string("Mois");
 3c4:	85 e6       	ldi	r24, 0x65	; 101
 3c6:	90 e0       	ldi	r25, 0x00	; 0
 3c8:	0e 94 e4 00 	call	0x1c8	; 0x1c8 <lcd_string>
                lcd_gotoxy(0,1);
 3cc:	80 e0       	ldi	r24, 0x00	; 0
 3ce:	61 e0       	ldi	r22, 0x01	; 1
 3d0:	0e 94 bb 00 	call	0x176	; 0x176 <lcd_gotoxy>
                lcd_num(a);
 3d4:	be 01       	movw	r22, r28
 3d6:	88 27       	eor	r24, r24
 3d8:	77 fd       	sbrc	r23, 7
 3da:	80 95       	com	r24
 3dc:	98 2f       	mov	r25, r24
 3de:	0e 94 49 01 	call	0x292	; 0x292 <lcd_num>
                a=adc_read(0);
 3e2:	80 e0       	ldi	r24, 0x00	; 0
 3e4:	0e 94 45 00 	call	0x8a	; 0x8a <adc_read>
 3e8:	64 c0       	rjmp	.+200    	; 0x4b2 <main+0x1dc>
			}
			
		
		}
		
		if(i==2)
 3ea:	02 30       	cpi	r16, 0x02	; 2
 3ec:	11 05       	cpc	r17, r1
 3ee:	09 f0       	breq	.+2      	; 0x3f2 <main+0x11c>
 3f0:	60 c0       	rjmp	.+192    	; 0x4b2 <main+0x1dc>
 3f2:	2a c0       	rjmp	.+84     	; 0x448 <main+0x172>
		{
			c=read(portd,0);
            
            while(c==1)	//bird detection
			{
				write(portb,7,h);
 3f4:	82 e0       	ldi	r24, 0x02	; 2
 3f6:	90 e0       	ldi	r25, 0x00	; 0
 3f8:	67 e0       	ldi	r22, 0x07	; 7
 3fa:	70 e0       	ldi	r23, 0x00	; 0
 3fc:	41 e0       	ldi	r20, 0x01	; 1
 3fe:	50 e0       	ldi	r21, 0x00	; 0
 400:	0e 94 cc 02 	call	0x598	; 0x598 <write>
				write(portd,4,h);
 404:	84 e0       	ldi	r24, 0x04	; 4
 406:	90 e0       	ldi	r25, 0x00	; 0
 408:	64 e0       	ldi	r22, 0x04	; 4
 40a:	70 e0       	ldi	r23, 0x00	; 0
 40c:	41 e0       	ldi	r20, 0x01	; 1
 40e:	50 e0       	ldi	r21, 0x00	; 0
 410:	0e 94 cc 02 	call	0x598	; 0x598 <write>
				write(portd,5,l);
 414:	84 e0       	ldi	r24, 0x04	; 4
 416:	90 e0       	ldi	r25, 0x00	; 0
 418:	65 e0       	ldi	r22, 0x05	; 5
 41a:	70 e0       	ldi	r23, 0x00	; 0
 41c:	40 e0       	ldi	r20, 0x00	; 0
 41e:	50 e0       	ldi	r21, 0x00	; 0
 420:	0e 94 cc 02 	call	0x598	; 0x598 <write>
				
				
				lcd_gotoxy(12,0);
 424:	8c e0       	ldi	r24, 0x0C	; 12
 426:	60 e0       	ldi	r22, 0x00	; 0
 428:	0e 94 bb 00 	call	0x176	; 0x176 <lcd_gotoxy>
                lcd_string("PIR");
 42c:	8a e6       	ldi	r24, 0x6A	; 106
 42e:	90 e0       	ldi	r25, 0x00	; 0
 430:	0e 94 e4 00 	call	0x1c8	; 0x1c8 <lcd_string>
                lcd_gotoxy(12,1);
 434:	8c e0       	ldi	r24, 0x0C	; 12
 436:	61 e0       	ldi	r22, 0x01	; 1
 438:	0e 94 bb 00 	call	0x176	; 0x176 <lcd_gotoxy>
				lcd_num(c);
 43c:	61 e0       	ldi	r22, 0x01	; 1
 43e:	70 e0       	ldi	r23, 0x00	; 0
 440:	80 e0       	ldi	r24, 0x00	; 0
 442:	90 e0       	ldi	r25, 0x00	; 0
 444:	0e 94 49 01 	call	0x292	; 0x292 <lcd_num>
                c=read(portd,0);
 448:	84 e0       	ldi	r24, 0x04	; 4
 44a:	90 e0       	ldi	r25, 0x00	; 0
 44c:	60 e0       	ldi	r22, 0x00	; 0
 44e:	70 e0       	ldi	r23, 0x00	; 0
 450:	0e 94 60 02 	call	0x4c0	; 0x4c0 <read>
		
		if(i==2)
		{
			c=read(portd,0);
            
            while(c==1)	//bird detection
 454:	81 30       	cpi	r24, 0x01	; 1
 456:	91 05       	cpc	r25, r1
 458:	69 f2       	breq	.-102    	; 0x3f4 <main+0x11e>
                lcd_gotoxy(12,1);
				lcd_num(c);
                c=read(portd,0);
			}
			
			if(c==0)
 45a:	89 2b       	or	r24, r25
 45c:	51 f5       	brne	.+84     	; 0x4b2 <main+0x1dc>
			{
				write(portd,4,l);
 45e:	84 e0       	ldi	r24, 0x04	; 4
 460:	90 e0       	ldi	r25, 0x00	; 0
 462:	64 e0       	ldi	r22, 0x04	; 4
 464:	70 e0       	ldi	r23, 0x00	; 0
 466:	40 e0       	ldi	r20, 0x00	; 0
 468:	50 e0       	ldi	r21, 0x00	; 0
 46a:	0e 94 cc 02 	call	0x598	; 0x598 <write>
				write(portd,5,l);
 46e:	84 e0       	ldi	r24, 0x04	; 4
 470:	90 e0       	ldi	r25, 0x00	; 0
 472:	65 e0       	ldi	r22, 0x05	; 5
 474:	70 e0       	ldi	r23, 0x00	; 0
 476:	40 e0       	ldi	r20, 0x00	; 0
 478:	50 e0       	ldi	r21, 0x00	; 0
 47a:	0e 94 cc 02 	call	0x598	; 0x598 <write>
				
				write(portb,7,l);
 47e:	82 e0       	ldi	r24, 0x02	; 2
 480:	90 e0       	ldi	r25, 0x00	; 0
 482:	67 e0       	ldi	r22, 0x07	; 7
 484:	70 e0       	ldi	r23, 0x00	; 0
 486:	40 e0       	ldi	r20, 0x00	; 0
 488:	50 e0       	ldi	r21, 0x00	; 0
 48a:	0e 94 cc 02 	call	0x598	; 0x598 <write>
				
				lcd_gotoxy(12,0);
 48e:	8c e0       	ldi	r24, 0x0C	; 12
 490:	60 e0       	ldi	r22, 0x00	; 0
 492:	0e 94 bb 00 	call	0x176	; 0x176 <lcd_gotoxy>
                lcd_string("PIR");
 496:	8a e6       	ldi	r24, 0x6A	; 106
 498:	90 e0       	ldi	r25, 0x00	; 0
 49a:	0e 94 e4 00 	call	0x1c8	; 0x1c8 <lcd_string>
				lcd_gotoxy(12,1);
 49e:	8c e0       	ldi	r24, 0x0C	; 12
 4a0:	61 e0       	ldi	r22, 0x01	; 1
 4a2:	0e 94 bb 00 	call	0x176	; 0x176 <lcd_gotoxy>
				lcd_num(c);
 4a6:	60 e0       	ldi	r22, 0x00	; 0
 4a8:	70 e0       	ldi	r23, 0x00	; 0
 4aa:	80 e0       	ldi	r24, 0x00	; 0
 4ac:	90 e0       	ldi	r25, 0x00	; 0
 4ae:	0e 94 49 01 	call	0x292	; 0x292 <lcd_num>
	
	
	
	
	
	for(int i=1;i<=2;i++)
 4b2:	0f 5f       	subi	r16, 0xFF	; 255
 4b4:	1f 4f       	sbci	r17, 0xFF	; 255
 4b6:	03 30       	cpi	r16, 0x03	; 3
 4b8:	11 05       	cpc	r17, r1
 4ba:	09 f0       	breq	.+2      	; 0x4be <main+0x1e8>
 4bc:	29 cf       	rjmp	.-430    	; 0x310 <main+0x3a>
 4be:	1a cf       	rjmp	.-460    	; 0x2f4 <main+0x1e>

000004c0 <read>:
 4c0:	82 30       	cpi	r24, 0x02	; 2
 4c2:	f9 f0       	breq	.+62     	; 0x502 <read+0x42>
 4c4:	83 30       	cpi	r24, 0x03	; 3
 4c6:	18 f4       	brcc	.+6      	; 0x4ce <read+0xe>
 4c8:	81 30       	cpi	r24, 0x01	; 1
 4ca:	31 f4       	brne	.+12     	; 0x4d8 <read+0x18>
 4cc:	07 c0       	rjmp	.+14     	; 0x4dc <read+0x1c>
 4ce:	83 30       	cpi	r24, 0x03	; 3
 4d0:	59 f1       	breq	.+86     	; 0x528 <read+0x68>
 4d2:	84 30       	cpi	r24, 0x04	; 4
 4d4:	09 f4       	brne	.+2      	; 0x4d8 <read+0x18>
 4d6:	42 c0       	rjmp	.+132    	; 0x55c <read+0x9c>
 4d8:	80 e0       	ldi	r24, 0x00	; 0
 4da:	08 95       	ret
 4dc:	69 30       	cpi	r22, 0x09	; 9
 4de:	19 f4       	brne	.+6      	; 0x4e6 <read+0x26>
 4e0:	1a ba       	out	0x1a, r1	; 26
 4e2:	89 b3       	in	r24, 0x19	; 25
 4e4:	08 95       	ret
 4e6:	8a b3       	in	r24, 0x1a	; 26
 4e8:	21 e0       	ldi	r18, 0x01	; 1
 4ea:	30 e0       	ldi	r19, 0x00	; 0
 4ec:	06 2e       	mov	r0, r22
 4ee:	02 c0       	rjmp	.+4      	; 0x4f4 <read+0x34>
 4f0:	22 0f       	add	r18, r18
 4f2:	33 1f       	adc	r19, r19
 4f4:	0a 94       	dec	r0
 4f6:	e2 f7       	brpl	.-8      	; 0x4f0 <read+0x30>
 4f8:	20 95       	com	r18
 4fa:	28 23       	and	r18, r24
 4fc:	2a bb       	out	0x1a, r18	; 26
 4fe:	89 b3       	in	r24, 0x19	; 25
 500:	25 c0       	rjmp	.+74     	; 0x54c <read+0x8c>
 502:	69 30       	cpi	r22, 0x09	; 9
 504:	19 f4       	brne	.+6      	; 0x50c <read+0x4c>
 506:	17 ba       	out	0x17, r1	; 23
 508:	86 b3       	in	r24, 0x16	; 22
 50a:	08 95       	ret
 50c:	87 b3       	in	r24, 0x17	; 23
 50e:	21 e0       	ldi	r18, 0x01	; 1
 510:	30 e0       	ldi	r19, 0x00	; 0
 512:	06 2e       	mov	r0, r22
 514:	02 c0       	rjmp	.+4      	; 0x51a <read+0x5a>
 516:	22 0f       	add	r18, r18
 518:	33 1f       	adc	r19, r19
 51a:	0a 94       	dec	r0
 51c:	e2 f7       	brpl	.-8      	; 0x516 <read+0x56>
 51e:	20 95       	com	r18
 520:	28 23       	and	r18, r24
 522:	27 bb       	out	0x17, r18	; 23
 524:	86 b3       	in	r24, 0x16	; 22
 526:	12 c0       	rjmp	.+36     	; 0x54c <read+0x8c>
 528:	69 30       	cpi	r22, 0x09	; 9
 52a:	19 f4       	brne	.+6      	; 0x532 <read+0x72>
 52c:	14 ba       	out	0x14, r1	; 20
 52e:	83 b3       	in	r24, 0x13	; 19
 530:	08 95       	ret
 532:	84 b3       	in	r24, 0x14	; 20
 534:	21 e0       	ldi	r18, 0x01	; 1
 536:	30 e0       	ldi	r19, 0x00	; 0
 538:	06 2e       	mov	r0, r22
 53a:	02 c0       	rjmp	.+4      	; 0x540 <read+0x80>
 53c:	22 0f       	add	r18, r18
 53e:	33 1f       	adc	r19, r19
 540:	0a 94       	dec	r0
 542:	e2 f7       	brpl	.-8      	; 0x53c <read+0x7c>
 544:	20 95       	com	r18
 546:	28 23       	and	r18, r24
 548:	24 bb       	out	0x14, r18	; 20
 54a:	83 b3       	in	r24, 0x13	; 19
 54c:	90 e0       	ldi	r25, 0x00	; 0
 54e:	02 c0       	rjmp	.+4      	; 0x554 <read+0x94>
 550:	95 95       	asr	r25
 552:	87 95       	ror	r24
 554:	6a 95       	dec	r22
 556:	e2 f7       	brpl	.-8      	; 0x550 <read+0x90>
 558:	81 70       	andi	r24, 0x01	; 1
 55a:	08 95       	ret
 55c:	69 30       	cpi	r22, 0x09	; 9
 55e:	19 f4       	brne	.+6      	; 0x566 <read+0xa6>
 560:	11 ba       	out	0x11, r1	; 17
 562:	80 b3       	in	r24, 0x10	; 16
 564:	08 95       	ret
 566:	31 b3       	in	r19, 0x11	; 17
 568:	81 e0       	ldi	r24, 0x01	; 1
 56a:	90 e0       	ldi	r25, 0x00	; 0
 56c:	06 2e       	mov	r0, r22
 56e:	02 c0       	rjmp	.+4      	; 0x574 <read+0xb4>
 570:	88 0f       	add	r24, r24
 572:	99 1f       	adc	r25, r25
 574:	0a 94       	dec	r0
 576:	e2 f7       	brpl	.-8      	; 0x570 <read+0xb0>
 578:	28 2f       	mov	r18, r24
 57a:	20 95       	com	r18
 57c:	23 23       	and	r18, r19
 57e:	21 bb       	out	0x11, r18	; 17
 580:	22 b3       	in	r18, 0x12	; 18
 582:	82 2b       	or	r24, r18
 584:	82 bb       	out	0x12, r24	; 18
 586:	80 b3       	in	r24, 0x10	; 16
 588:	90 e0       	ldi	r25, 0x00	; 0
 58a:	02 c0       	rjmp	.+4      	; 0x590 <read+0xd0>
 58c:	95 95       	asr	r25
 58e:	87 95       	ror	r24
 590:	6a 95       	dec	r22
 592:	e2 f7       	brpl	.-8      	; 0x58c <read+0xcc>
 594:	81 70       	andi	r24, 0x01	; 1
 596:	08 95       	ret

00000598 <write>:
 598:	82 30       	cpi	r24, 0x02	; 2
 59a:	09 f4       	brne	.+2      	; 0x59e <write+0x6>
 59c:	41 c0       	rjmp	.+130    	; 0x620 <write+0x88>
 59e:	83 30       	cpi	r24, 0x03	; 3
 5a0:	20 f4       	brcc	.+8      	; 0x5aa <write+0x12>
 5a2:	81 30       	cpi	r24, 0x01	; 1
 5a4:	09 f0       	breq	.+2      	; 0x5a8 <write+0x10>
 5a6:	d7 c0       	rjmp	.+430    	; 0x756 <write+0x1be>
 5a8:	07 c0       	rjmp	.+14     	; 0x5b8 <write+0x20>
 5aa:	83 30       	cpi	r24, 0x03	; 3
 5ac:	09 f4       	brne	.+2      	; 0x5b0 <write+0x18>
 5ae:	6c c0       	rjmp	.+216    	; 0x688 <write+0xf0>
 5b0:	84 30       	cpi	r24, 0x04	; 4
 5b2:	09 f0       	breq	.+2      	; 0x5b6 <write+0x1e>
 5b4:	d0 c0       	rjmp	.+416    	; 0x756 <write+0x1be>
 5b6:	9c c0       	rjmp	.+312    	; 0x6f0 <write+0x158>
 5b8:	6b 35       	cpi	r22, 0x5B	; 91
 5ba:	21 f4       	brne	.+8      	; 0x5c4 <write+0x2c>
 5bc:	8f ef       	ldi	r24, 0xFF	; 255
 5be:	8a bb       	out	0x1a, r24	; 26
 5c0:	4b bb       	out	0x1b, r20	; 27
 5c2:	08 95       	ret
 5c4:	44 23       	and	r20, r20
 5c6:	21 f0       	breq	.+8      	; 0x5d0 <write+0x38>
 5c8:	41 30       	cpi	r20, 0x01	; 1
 5ca:	09 f0       	breq	.+2      	; 0x5ce <write+0x36>
 5cc:	c4 c0       	rjmp	.+392    	; 0x756 <write+0x1be>
 5ce:	14 c0       	rjmp	.+40     	; 0x5f8 <write+0x60>
 5d0:	69 30       	cpi	r22, 0x09	; 9
 5d2:	21 f4       	brne	.+8      	; 0x5dc <write+0x44>
 5d4:	8f ef       	ldi	r24, 0xFF	; 255
 5d6:	8a bb       	out	0x1a, r24	; 26
 5d8:	1b ba       	out	0x1b, r1	; 27
 5da:	08 95       	ret
 5dc:	8a b3       	in	r24, 0x1a	; 26
 5de:	21 e0       	ldi	r18, 0x01	; 1
 5e0:	30 e0       	ldi	r19, 0x00	; 0
 5e2:	02 c0       	rjmp	.+4      	; 0x5e8 <write+0x50>
 5e4:	22 0f       	add	r18, r18
 5e6:	33 1f       	adc	r19, r19
 5e8:	6a 95       	dec	r22
 5ea:	e2 f7       	brpl	.-8      	; 0x5e4 <write+0x4c>
 5ec:	82 2b       	or	r24, r18
 5ee:	8a bb       	out	0x1a, r24	; 26
 5f0:	8b b3       	in	r24, 0x1b	; 27
 5f2:	20 95       	com	r18
 5f4:	28 23       	and	r18, r24
 5f6:	12 c0       	rjmp	.+36     	; 0x61c <write+0x84>
 5f8:	69 30       	cpi	r22, 0x09	; 9
 5fa:	21 f4       	brne	.+8      	; 0x604 <write+0x6c>
 5fc:	8f ef       	ldi	r24, 0xFF	; 255
 5fe:	8a bb       	out	0x1a, r24	; 26
 600:	8b bb       	out	0x1b, r24	; 27
 602:	08 95       	ret
 604:	8a b3       	in	r24, 0x1a	; 26
 606:	21 e0       	ldi	r18, 0x01	; 1
 608:	30 e0       	ldi	r19, 0x00	; 0
 60a:	02 c0       	rjmp	.+4      	; 0x610 <write+0x78>
 60c:	22 0f       	add	r18, r18
 60e:	33 1f       	adc	r19, r19
 610:	6a 95       	dec	r22
 612:	e2 f7       	brpl	.-8      	; 0x60c <write+0x74>
 614:	82 2b       	or	r24, r18
 616:	8a bb       	out	0x1a, r24	; 26
 618:	8b b3       	in	r24, 0x1b	; 27
 61a:	28 2b       	or	r18, r24
 61c:	2b bb       	out	0x1b, r18	; 27
 61e:	08 95       	ret
 620:	6b 35       	cpi	r22, 0x5B	; 91
 622:	21 f4       	brne	.+8      	; 0x62c <write+0x94>
 624:	8f ef       	ldi	r24, 0xFF	; 255
 626:	87 bb       	out	0x17, r24	; 23
 628:	48 bb       	out	0x18, r20	; 24
 62a:	08 95       	ret
 62c:	44 23       	and	r20, r20
 62e:	21 f0       	breq	.+8      	; 0x638 <write+0xa0>
 630:	41 30       	cpi	r20, 0x01	; 1
 632:	09 f0       	breq	.+2      	; 0x636 <write+0x9e>
 634:	90 c0       	rjmp	.+288    	; 0x756 <write+0x1be>
 636:	14 c0       	rjmp	.+40     	; 0x660 <write+0xc8>
 638:	69 30       	cpi	r22, 0x09	; 9
 63a:	21 f4       	brne	.+8      	; 0x644 <write+0xac>
 63c:	8f ef       	ldi	r24, 0xFF	; 255
 63e:	87 bb       	out	0x17, r24	; 23
 640:	18 ba       	out	0x18, r1	; 24
 642:	08 95       	ret
 644:	87 b3       	in	r24, 0x17	; 23
 646:	21 e0       	ldi	r18, 0x01	; 1
 648:	30 e0       	ldi	r19, 0x00	; 0
 64a:	02 c0       	rjmp	.+4      	; 0x650 <write+0xb8>
 64c:	22 0f       	add	r18, r18
 64e:	33 1f       	adc	r19, r19
 650:	6a 95       	dec	r22
 652:	e2 f7       	brpl	.-8      	; 0x64c <write+0xb4>
 654:	82 2b       	or	r24, r18
 656:	87 bb       	out	0x17, r24	; 23
 658:	88 b3       	in	r24, 0x18	; 24
 65a:	20 95       	com	r18
 65c:	28 23       	and	r18, r24
 65e:	12 c0       	rjmp	.+36     	; 0x684 <write+0xec>
 660:	69 30       	cpi	r22, 0x09	; 9
 662:	21 f4       	brne	.+8      	; 0x66c <write+0xd4>
 664:	8f ef       	ldi	r24, 0xFF	; 255
 666:	87 bb       	out	0x17, r24	; 23
 668:	88 bb       	out	0x18, r24	; 24
 66a:	08 95       	ret
 66c:	87 b3       	in	r24, 0x17	; 23
 66e:	21 e0       	ldi	r18, 0x01	; 1
 670:	30 e0       	ldi	r19, 0x00	; 0
 672:	02 c0       	rjmp	.+4      	; 0x678 <write+0xe0>
 674:	22 0f       	add	r18, r18
 676:	33 1f       	adc	r19, r19
 678:	6a 95       	dec	r22
 67a:	e2 f7       	brpl	.-8      	; 0x674 <write+0xdc>
 67c:	82 2b       	or	r24, r18
 67e:	87 bb       	out	0x17, r24	; 23
 680:	88 b3       	in	r24, 0x18	; 24
 682:	28 2b       	or	r18, r24
 684:	28 bb       	out	0x18, r18	; 24
 686:	08 95       	ret
 688:	6b 35       	cpi	r22, 0x5B	; 91
 68a:	21 f4       	brne	.+8      	; 0x694 <write+0xfc>
 68c:	8f ef       	ldi	r24, 0xFF	; 255
 68e:	84 bb       	out	0x14, r24	; 20
 690:	45 bb       	out	0x15, r20	; 21
 692:	08 95       	ret
 694:	44 23       	and	r20, r20
 696:	21 f0       	breq	.+8      	; 0x6a0 <write+0x108>
 698:	41 30       	cpi	r20, 0x01	; 1
 69a:	09 f0       	breq	.+2      	; 0x69e <write+0x106>
 69c:	5c c0       	rjmp	.+184    	; 0x756 <write+0x1be>
 69e:	14 c0       	rjmp	.+40     	; 0x6c8 <write+0x130>
 6a0:	69 30       	cpi	r22, 0x09	; 9
 6a2:	21 f4       	brne	.+8      	; 0x6ac <write+0x114>
 6a4:	8f ef       	ldi	r24, 0xFF	; 255
 6a6:	84 bb       	out	0x14, r24	; 20
 6a8:	15 ba       	out	0x15, r1	; 21
 6aa:	08 95       	ret
 6ac:	84 b3       	in	r24, 0x14	; 20
 6ae:	21 e0       	ldi	r18, 0x01	; 1
 6b0:	30 e0       	ldi	r19, 0x00	; 0
 6b2:	02 c0       	rjmp	.+4      	; 0x6b8 <write+0x120>
 6b4:	22 0f       	add	r18, r18
 6b6:	33 1f       	adc	r19, r19
 6b8:	6a 95       	dec	r22
 6ba:	e2 f7       	brpl	.-8      	; 0x6b4 <write+0x11c>
 6bc:	82 2b       	or	r24, r18
 6be:	84 bb       	out	0x14, r24	; 20
 6c0:	85 b3       	in	r24, 0x15	; 21
 6c2:	20 95       	com	r18
 6c4:	28 23       	and	r18, r24
 6c6:	12 c0       	rjmp	.+36     	; 0x6ec <write+0x154>
 6c8:	69 30       	cpi	r22, 0x09	; 9
 6ca:	21 f4       	brne	.+8      	; 0x6d4 <write+0x13c>
 6cc:	8f ef       	ldi	r24, 0xFF	; 255
 6ce:	84 bb       	out	0x14, r24	; 20
 6d0:	85 bb       	out	0x15, r24	; 21
 6d2:	08 95       	ret
 6d4:	84 b3       	in	r24, 0x14	; 20
 6d6:	21 e0       	ldi	r18, 0x01	; 1
 6d8:	30 e0       	ldi	r19, 0x00	; 0
 6da:	02 c0       	rjmp	.+4      	; 0x6e0 <write+0x148>
 6dc:	22 0f       	add	r18, r18
 6de:	33 1f       	adc	r19, r19
 6e0:	6a 95       	dec	r22
 6e2:	e2 f7       	brpl	.-8      	; 0x6dc <write+0x144>
 6e4:	82 2b       	or	r24, r18
 6e6:	84 bb       	out	0x14, r24	; 20
 6e8:	85 b3       	in	r24, 0x15	; 21
 6ea:	28 2b       	or	r18, r24
 6ec:	25 bb       	out	0x15, r18	; 21
 6ee:	08 95       	ret
 6f0:	6b 35       	cpi	r22, 0x5B	; 91
 6f2:	21 f4       	brne	.+8      	; 0x6fc <write+0x164>
 6f4:	8f ef       	ldi	r24, 0xFF	; 255
 6f6:	81 bb       	out	0x11, r24	; 17
 6f8:	42 bb       	out	0x12, r20	; 18
 6fa:	08 95       	ret
 6fc:	44 23       	and	r20, r20
 6fe:	19 f0       	breq	.+6      	; 0x706 <write+0x16e>
 700:	41 30       	cpi	r20, 0x01	; 1
 702:	49 f5       	brne	.+82     	; 0x756 <write+0x1be>
 704:	15 c0       	rjmp	.+42     	; 0x730 <write+0x198>
 706:	69 30       	cpi	r22, 0x09	; 9
 708:	21 f4       	brne	.+8      	; 0x712 <write+0x17a>
 70a:	8f ef       	ldi	r24, 0xFF	; 255
 70c:	81 bb       	out	0x11, r24	; 17
 70e:	12 ba       	out	0x12, r1	; 18
 710:	08 95       	ret
 712:	81 b3       	in	r24, 0x11	; 17
 714:	21 e0       	ldi	r18, 0x01	; 1
 716:	30 e0       	ldi	r19, 0x00	; 0
 718:	02 c0       	rjmp	.+4      	; 0x71e <write+0x186>
 71a:	22 0f       	add	r18, r18
 71c:	33 1f       	adc	r19, r19
 71e:	6a 95       	dec	r22
 720:	e2 f7       	brpl	.-8      	; 0x71a <write+0x182>
 722:	82 2b       	or	r24, r18
 724:	81 bb       	out	0x11, r24	; 17
 726:	82 b3       	in	r24, 0x12	; 18
 728:	20 95       	com	r18
 72a:	28 23       	and	r18, r24
 72c:	22 bb       	out	0x12, r18	; 18
 72e:	08 95       	ret
 730:	69 30       	cpi	r22, 0x09	; 9
 732:	21 f4       	brne	.+8      	; 0x73c <write+0x1a4>
 734:	8f ef       	ldi	r24, 0xFF	; 255
 736:	81 bb       	out	0x11, r24	; 17
 738:	82 bb       	out	0x12, r24	; 18
 73a:	08 95       	ret
 73c:	81 b3       	in	r24, 0x11	; 17
 73e:	21 e0       	ldi	r18, 0x01	; 1
 740:	30 e0       	ldi	r19, 0x00	; 0
 742:	02 c0       	rjmp	.+4      	; 0x748 <write+0x1b0>
 744:	22 0f       	add	r18, r18
 746:	33 1f       	adc	r19, r19
 748:	6a 95       	dec	r22
 74a:	e2 f7       	brpl	.-8      	; 0x744 <write+0x1ac>
 74c:	82 2b       	or	r24, r18
 74e:	81 bb       	out	0x11, r24	; 17
 750:	82 b3       	in	r24, 0x12	; 18
 752:	28 2b       	or	r18, r24
 754:	22 bb       	out	0x12, r18	; 18
 756:	08 95       	ret

00000758 <direction>:
 758:	83 30       	cpi	r24, 0x03	; 3
 75a:	19 f1       	breq	.+70     	; 0x7a2 <direction+0x4a>
 75c:	84 30       	cpi	r24, 0x04	; 4
 75e:	09 f4       	brne	.+2      	; 0x762 <direction+0xa>
 760:	3c c0       	rjmp	.+120    	; 0x7da <direction+0x82>
 762:	82 30       	cpi	r24, 0x02	; 2
 764:	09 f0       	breq	.+2      	; 0x768 <direction+0x10>
 766:	54 c0       	rjmp	.+168    	; 0x810 <direction+0xb8>
 768:	44 23       	and	r20, r20
 76a:	21 f0       	breq	.+8      	; 0x774 <direction+0x1c>
 76c:	41 30       	cpi	r20, 0x01	; 1
 76e:	09 f0       	breq	.+2      	; 0x772 <direction+0x1a>
 770:	4f c0       	rjmp	.+158    	; 0x810 <direction+0xb8>
 772:	0c c0       	rjmp	.+24     	; 0x78c <direction+0x34>
 774:	27 b3       	in	r18, 0x17	; 23
 776:	81 e0       	ldi	r24, 0x01	; 1
 778:	90 e0       	ldi	r25, 0x00	; 0
 77a:	02 c0       	rjmp	.+4      	; 0x780 <direction+0x28>
 77c:	88 0f       	add	r24, r24
 77e:	99 1f       	adc	r25, r25
 780:	6a 95       	dec	r22
 782:	e2 f7       	brpl	.-8      	; 0x77c <direction+0x24>
 784:	80 95       	com	r24
 786:	82 23       	and	r24, r18
 788:	87 bb       	out	0x17, r24	; 23
 78a:	08 95       	ret
 78c:	27 b3       	in	r18, 0x17	; 23
 78e:	81 e0       	ldi	r24, 0x01	; 1
 790:	90 e0       	ldi	r25, 0x00	; 0
 792:	02 c0       	rjmp	.+4      	; 0x798 <direction+0x40>
 794:	88 0f       	add	r24, r24
 796:	99 1f       	adc	r25, r25
 798:	6a 95       	dec	r22
 79a:	e2 f7       	brpl	.-8      	; 0x794 <direction+0x3c>
 79c:	28 2b       	or	r18, r24
 79e:	27 bb       	out	0x17, r18	; 23
 7a0:	08 95       	ret
 7a2:	44 23       	and	r20, r20
 7a4:	19 f0       	breq	.+6      	; 0x7ac <direction+0x54>
 7a6:	41 30       	cpi	r20, 0x01	; 1
 7a8:	99 f5       	brne	.+102    	; 0x810 <direction+0xb8>
 7aa:	0c c0       	rjmp	.+24     	; 0x7c4 <direction+0x6c>
 7ac:	24 b3       	in	r18, 0x14	; 20
 7ae:	81 e0       	ldi	r24, 0x01	; 1
 7b0:	90 e0       	ldi	r25, 0x00	; 0
 7b2:	02 c0       	rjmp	.+4      	; 0x7b8 <direction+0x60>
 7b4:	88 0f       	add	r24, r24
 7b6:	99 1f       	adc	r25, r25
 7b8:	6a 95       	dec	r22
 7ba:	e2 f7       	brpl	.-8      	; 0x7b4 <direction+0x5c>
 7bc:	80 95       	com	r24
 7be:	82 23       	and	r24, r18
 7c0:	84 bb       	out	0x14, r24	; 20
 7c2:	08 95       	ret
 7c4:	24 b3       	in	r18, 0x14	; 20
 7c6:	81 e0       	ldi	r24, 0x01	; 1
 7c8:	90 e0       	ldi	r25, 0x00	; 0
 7ca:	02 c0       	rjmp	.+4      	; 0x7d0 <direction+0x78>
 7cc:	88 0f       	add	r24, r24
 7ce:	99 1f       	adc	r25, r25
 7d0:	6a 95       	dec	r22
 7d2:	e2 f7       	brpl	.-8      	; 0x7cc <direction+0x74>
 7d4:	28 2b       	or	r18, r24
 7d6:	24 bb       	out	0x14, r18	; 20
 7d8:	08 95       	ret
 7da:	44 23       	and	r20, r20
 7dc:	19 f0       	breq	.+6      	; 0x7e4 <direction+0x8c>
 7de:	41 30       	cpi	r20, 0x01	; 1
 7e0:	b9 f4       	brne	.+46     	; 0x810 <direction+0xb8>
 7e2:	0c c0       	rjmp	.+24     	; 0x7fc <direction+0xa4>
 7e4:	21 b3       	in	r18, 0x11	; 17
 7e6:	81 e0       	ldi	r24, 0x01	; 1
 7e8:	90 e0       	ldi	r25, 0x00	; 0
 7ea:	02 c0       	rjmp	.+4      	; 0x7f0 <direction+0x98>
 7ec:	88 0f       	add	r24, r24
 7ee:	99 1f       	adc	r25, r25
 7f0:	6a 95       	dec	r22
 7f2:	e2 f7       	brpl	.-8      	; 0x7ec <direction+0x94>
 7f4:	80 95       	com	r24
 7f6:	82 23       	and	r24, r18
 7f8:	81 bb       	out	0x11, r24	; 17
 7fa:	08 95       	ret
 7fc:	21 b3       	in	r18, 0x11	; 17
 7fe:	81 e0       	ldi	r24, 0x01	; 1
 800:	90 e0       	ldi	r25, 0x00	; 0
 802:	02 c0       	rjmp	.+4      	; 0x808 <direction+0xb0>
 804:	88 0f       	add	r24, r24
 806:	99 1f       	adc	r25, r25
 808:	6a 95       	dec	r22
 80a:	e2 f7       	brpl	.-8      	; 0x804 <direction+0xac>
 80c:	28 2b       	or	r18, r24
 80e:	21 bb       	out	0x11, r18	; 17
 810:	08 95       	ret

00000812 <serial_select>:
 812:	88 23       	and	r24, r24
 814:	21 f4       	brne	.+8      	; 0x81e <serial_select+0xc>
 816:	81 e0       	ldi	r24, 0x01	; 1
 818:	67 e0       	ldi	r22, 0x07	; 7
 81a:	40 e0       	ldi	r20, 0x00	; 0
 81c:	04 c0       	rjmp	.+8      	; 0x826 <serial_select+0x14>
 81e:	81 30       	cpi	r24, 0x01	; 1
 820:	41 f4       	brne	.+16     	; 0x832 <serial_select+0x20>
 822:	67 e0       	ldi	r22, 0x07	; 7
 824:	41 e0       	ldi	r20, 0x01	; 1
 826:	0e 94 cc 02 	call	0x598	; 0x598 <write>
 82a:	83 e0       	ldi	r24, 0x03	; 3
 82c:	62 e0       	ldi	r22, 0x02	; 2
 82e:	40 e0       	ldi	r20, 0x00	; 0
 830:	0a c0       	rjmp	.+20     	; 0x846 <serial_select+0x34>
 832:	82 30       	cpi	r24, 0x02	; 2
 834:	59 f4       	brne	.+22     	; 0x84c <serial_select+0x3a>
 836:	81 e0       	ldi	r24, 0x01	; 1
 838:	67 e0       	ldi	r22, 0x07	; 7
 83a:	40 e0       	ldi	r20, 0x00	; 0
 83c:	0e 94 cc 02 	call	0x598	; 0x598 <write>
 840:	83 e0       	ldi	r24, 0x03	; 3
 842:	62 e0       	ldi	r22, 0x02	; 2
 844:	41 e0       	ldi	r20, 0x01	; 1
 846:	0e 94 cc 02 	call	0x598	; 0x598 <write>
 84a:	08 95       	ret
 84c:	83 30       	cpi	r24, 0x03	; 3
 84e:	51 f4       	brne	.+20     	; 0x864 <__stack+0x5>
 850:	81 e0       	ldi	r24, 0x01	; 1
 852:	67 e0       	ldi	r22, 0x07	; 7
 854:	41 e0       	ldi	r20, 0x01	; 1
 856:	0e 94 cc 02 	call	0x598	; 0x598 <write>
 85a:	83 e0       	ldi	r24, 0x03	; 3
 85c:	62 e0       	ldi	r22, 0x02	; 2
 85e:	41 e0       	ldi	r20, 0x01	; 1
 860:	0e 94 cc 02 	call	0x598	; 0x598 <write>
 864:	08 95       	ret

00000866 <jsonparser>:
 866:	ef 92       	push	r14
 868:	ff 92       	push	r15
 86a:	0f 93       	push	r16
 86c:	1f 93       	push	r17
 86e:	cf 93       	push	r28
 870:	df 93       	push	r29
 872:	ea 01       	movw	r28, r20
 874:	0e 94 cc 04 	call	0x998	; 0x998 <strstr>
 878:	00 97       	sbiw	r24, 0x00	; 0
 87a:	19 f4       	brne	.+6      	; 0x882 <jsonparser+0x1c>
 87c:	20 e0       	ldi	r18, 0x00	; 0
 87e:	30 e0       	ldi	r19, 0x00	; 0
 880:	1d c0       	rjmp	.+58     	; 0x8bc <jsonparser+0x56>
 882:	01 96       	adiw	r24, 0x01	; 1
 884:	6e e6       	ldi	r22, 0x6E	; 110
 886:	70 e0       	ldi	r23, 0x00	; 0
 888:	0e 94 cc 04 	call	0x998	; 0x998 <strstr>
 88c:	7c 01       	movw	r14, r24
 88e:	83 e0       	ldi	r24, 0x03	; 3
 890:	90 e0       	ldi	r25, 0x00	; 0
 892:	e8 0e       	add	r14, r24
 894:	f9 1e       	adc	r15, r25
 896:	c7 01       	movw	r24, r14
 898:	62 e2       	ldi	r22, 0x22	; 34
 89a:	70 e0       	ldi	r23, 0x00	; 0
 89c:	0e 94 9a 04 	call	0x934	; 0x934 <strchr>
 8a0:	8c 01       	movw	r16, r24
 8a2:	0e 19       	sub	r16, r14
 8a4:	1f 09       	sbc	r17, r15
 8a6:	ce 01       	movw	r24, r28
 8a8:	b7 01       	movw	r22, r14
 8aa:	a8 01       	movw	r20, r16
 8ac:	0e 94 bd 04 	call	0x97a	; 0x97a <strncpy>
 8b0:	0c 0f       	add	r16, r28
 8b2:	1d 1f       	adc	r17, r29
 8b4:	f8 01       	movw	r30, r16
 8b6:	10 82       	st	Z, r1
 8b8:	21 e0       	ldi	r18, 0x01	; 1
 8ba:	30 e0       	ldi	r19, 0x00	; 0
 8bc:	c9 01       	movw	r24, r18
 8be:	df 91       	pop	r29
 8c0:	cf 91       	pop	r28
 8c2:	1f 91       	pop	r17
 8c4:	0f 91       	pop	r16
 8c6:	ff 90       	pop	r15
 8c8:	ef 90       	pop	r14
 8ca:	08 95       	ret

000008cc <compare>:
 8cc:	db 01       	movw	r26, r22
 8ce:	0d 90       	ld	r0, X+
 8d0:	00 20       	and	r0, r0
 8d2:	e9 f7       	brne	.-6      	; 0x8ce <compare+0x2>
 8d4:	11 97       	sbiw	r26, 0x01	; 1
 8d6:	a6 1b       	sub	r26, r22
 8d8:	b7 0b       	sbc	r27, r23
 8da:	4a 2f       	mov	r20, r26
 8dc:	50 e0       	ldi	r21, 0x00	; 0
 8de:	0e 94 a5 04 	call	0x94a	; 0x94a <strncasecmp>
 8e2:	20 e0       	ldi	r18, 0x00	; 0
 8e4:	30 e0       	ldi	r19, 0x00	; 0
 8e6:	89 2b       	or	r24, r25
 8e8:	11 f4       	brne	.+4      	; 0x8ee <compare+0x22>
 8ea:	21 e0       	ldi	r18, 0x01	; 1
 8ec:	30 e0       	ldi	r19, 0x00	; 0
 8ee:	c9 01       	movw	r24, r18
 8f0:	08 95       	ret

000008f2 <str_num>:
 8f2:	0e 94 7c 04 	call	0x8f8	; 0x8f8 <atoi>
 8f6:	08 95       	ret

000008f8 <atoi>:
 8f8:	fc 01       	movw	r30, r24
 8fa:	88 27       	eor	r24, r24
 8fc:	99 27       	eor	r25, r25
 8fe:	e8 94       	clt
 900:	21 91       	ld	r18, Z+
 902:	20 32       	cpi	r18, 0x20	; 32
 904:	e9 f3       	breq	.-6      	; 0x900 <atoi+0x8>
 906:	29 30       	cpi	r18, 0x09	; 9
 908:	10 f0       	brcs	.+4      	; 0x90e <atoi+0x16>
 90a:	2e 30       	cpi	r18, 0x0E	; 14
 90c:	c8 f3       	brcs	.-14     	; 0x900 <atoi+0x8>
 90e:	2b 32       	cpi	r18, 0x2B	; 43
 910:	41 f0       	breq	.+16     	; 0x922 <atoi+0x2a>
 912:	2d 32       	cpi	r18, 0x2D	; 45
 914:	39 f4       	brne	.+14     	; 0x924 <atoi+0x2c>
 916:	68 94       	set
 918:	04 c0       	rjmp	.+8      	; 0x922 <atoi+0x2a>
 91a:	0e 94 1a 05 	call	0xa34	; 0xa34 <__mulhi_const_10>
 91e:	82 0f       	add	r24, r18
 920:	91 1d       	adc	r25, r1
 922:	21 91       	ld	r18, Z+
 924:	20 53       	subi	r18, 0x30	; 48
 926:	2a 30       	cpi	r18, 0x0A	; 10
 928:	c0 f3       	brcs	.-16     	; 0x91a <atoi+0x22>
 92a:	1e f4       	brtc	.+6      	; 0x932 <atoi+0x3a>
 92c:	90 95       	com	r25
 92e:	81 95       	neg	r24
 930:	9f 4f       	sbci	r25, 0xFF	; 255
 932:	08 95       	ret

00000934 <strchr>:
 934:	fc 01       	movw	r30, r24
 936:	81 91       	ld	r24, Z+
 938:	86 17       	cp	r24, r22
 93a:	21 f0       	breq	.+8      	; 0x944 <strchr+0x10>
 93c:	88 23       	and	r24, r24
 93e:	d9 f7       	brne	.-10     	; 0x936 <strchr+0x2>
 940:	99 27       	eor	r25, r25
 942:	08 95       	ret
 944:	31 97       	sbiw	r30, 0x01	; 1
 946:	cf 01       	movw	r24, r30
 948:	08 95       	ret

0000094a <strncasecmp>:
 94a:	fb 01       	movw	r30, r22
 94c:	dc 01       	movw	r26, r24
 94e:	41 50       	subi	r20, 0x01	; 1
 950:	50 40       	sbci	r21, 0x00	; 0
 952:	88 f0       	brcs	.+34     	; 0x976 <strncasecmp+0x2c>
 954:	8d 91       	ld	r24, X+
 956:	81 34       	cpi	r24, 0x41	; 65
 958:	1c f0       	brlt	.+6      	; 0x960 <strncasecmp+0x16>
 95a:	8b 35       	cpi	r24, 0x5B	; 91
 95c:	0c f4       	brge	.+2      	; 0x960 <strncasecmp+0x16>
 95e:	80 5e       	subi	r24, 0xE0	; 224
 960:	61 91       	ld	r22, Z+
 962:	61 34       	cpi	r22, 0x41	; 65
 964:	1c f0       	brlt	.+6      	; 0x96c <strncasecmp+0x22>
 966:	6b 35       	cpi	r22, 0x5B	; 91
 968:	0c f4       	brge	.+2      	; 0x96c <strncasecmp+0x22>
 96a:	60 5e       	subi	r22, 0xE0	; 224
 96c:	86 1b       	sub	r24, r22
 96e:	61 11       	cpse	r22, r1
 970:	71 f3       	breq	.-36     	; 0x94e <strncasecmp+0x4>
 972:	99 0b       	sbc	r25, r25
 974:	08 95       	ret
 976:	88 1b       	sub	r24, r24
 978:	fc cf       	rjmp	.-8      	; 0x972 <strncasecmp+0x28>

0000097a <strncpy>:
 97a:	fb 01       	movw	r30, r22
 97c:	dc 01       	movw	r26, r24
 97e:	41 50       	subi	r20, 0x01	; 1
 980:	50 40       	sbci	r21, 0x00	; 0
 982:	48 f0       	brcs	.+18     	; 0x996 <strncpy+0x1c>
 984:	01 90       	ld	r0, Z+
 986:	0d 92       	st	X+, r0
 988:	00 20       	and	r0, r0
 98a:	c9 f7       	brne	.-14     	; 0x97e <strncpy+0x4>
 98c:	01 c0       	rjmp	.+2      	; 0x990 <strncpy+0x16>
 98e:	1d 92       	st	X+, r1
 990:	41 50       	subi	r20, 0x01	; 1
 992:	50 40       	sbci	r21, 0x00	; 0
 994:	e0 f7       	brcc	.-8      	; 0x98e <strncpy+0x14>
 996:	08 95       	ret

00000998 <strstr>:
 998:	fb 01       	movw	r30, r22
 99a:	51 91       	ld	r21, Z+
 99c:	55 23       	and	r21, r21
 99e:	a9 f0       	breq	.+42     	; 0x9ca <strstr+0x32>
 9a0:	bf 01       	movw	r22, r30
 9a2:	dc 01       	movw	r26, r24
 9a4:	4d 91       	ld	r20, X+
 9a6:	45 17       	cp	r20, r21
 9a8:	41 11       	cpse	r20, r1
 9aa:	e1 f7       	brne	.-8      	; 0x9a4 <strstr+0xc>
 9ac:	59 f4       	brne	.+22     	; 0x9c4 <strstr+0x2c>
 9ae:	cd 01       	movw	r24, r26
 9b0:	01 90       	ld	r0, Z+
 9b2:	00 20       	and	r0, r0
 9b4:	49 f0       	breq	.+18     	; 0x9c8 <strstr+0x30>
 9b6:	4d 91       	ld	r20, X+
 9b8:	40 15       	cp	r20, r0
 9ba:	41 11       	cpse	r20, r1
 9bc:	c9 f3       	breq	.-14     	; 0x9b0 <strstr+0x18>
 9be:	fb 01       	movw	r30, r22
 9c0:	41 11       	cpse	r20, r1
 9c2:	ef cf       	rjmp	.-34     	; 0x9a2 <strstr+0xa>
 9c4:	81 e0       	ldi	r24, 0x01	; 1
 9c6:	90 e0       	ldi	r25, 0x00	; 0
 9c8:	01 97       	sbiw	r24, 0x01	; 1
 9ca:	08 95       	ret

000009cc <ltoa>:
 9cc:	fa 01       	movw	r30, r20
 9ce:	cf 93       	push	r28
 9d0:	ff 93       	push	r31
 9d2:	ef 93       	push	r30
 9d4:	22 30       	cpi	r18, 0x02	; 2
 9d6:	44 f1       	brlt	.+80     	; 0xa28 <ltoa+0x5c>
 9d8:	25 32       	cpi	r18, 0x25	; 37
 9da:	34 f5       	brge	.+76     	; 0xa28 <ltoa+0x5c>
 9dc:	c2 2f       	mov	r28, r18
 9de:	e8 94       	clt
 9e0:	ca 30       	cpi	r28, 0x0A	; 10
 9e2:	49 f4       	brne	.+18     	; 0x9f6 <ltoa+0x2a>
 9e4:	97 fb       	bst	r25, 7
 9e6:	3e f4       	brtc	.+14     	; 0x9f6 <ltoa+0x2a>
 9e8:	90 95       	com	r25
 9ea:	80 95       	com	r24
 9ec:	70 95       	com	r23
 9ee:	61 95       	neg	r22
 9f0:	7f 4f       	sbci	r23, 0xFF	; 255
 9f2:	8f 4f       	sbci	r24, 0xFF	; 255
 9f4:	9f 4f       	sbci	r25, 0xFF	; 255
 9f6:	2c 2f       	mov	r18, r28
 9f8:	33 27       	eor	r19, r19
 9fa:	44 27       	eor	r20, r20
 9fc:	55 27       	eor	r21, r21
 9fe:	ff 93       	push	r31
 a00:	ef 93       	push	r30
 a02:	0e 94 32 05 	call	0xa64	; 0xa64 <__udivmodsi4>
 a06:	ef 91       	pop	r30
 a08:	ff 91       	pop	r31
 a0a:	60 5d       	subi	r22, 0xD0	; 208
 a0c:	6a 33       	cpi	r22, 0x3A	; 58
 a0e:	0c f0       	brlt	.+2      	; 0xa12 <ltoa+0x46>
 a10:	69 5d       	subi	r22, 0xD9	; 217
 a12:	61 93       	st	Z+, r22
 a14:	b9 01       	movw	r22, r18
 a16:	ca 01       	movw	r24, r20
 a18:	60 50       	subi	r22, 0x00	; 0
 a1a:	70 40       	sbci	r23, 0x00	; 0
 a1c:	80 40       	sbci	r24, 0x00	; 0
 a1e:	90 40       	sbci	r25, 0x00	; 0
 a20:	51 f7       	brne	.-44     	; 0x9f6 <ltoa+0x2a>
 a22:	16 f4       	brtc	.+4      	; 0xa28 <ltoa+0x5c>
 a24:	cd e2       	ldi	r28, 0x2D	; 45
 a26:	c1 93       	st	Z+, r28
 a28:	10 82       	st	Z, r1
 a2a:	8f 91       	pop	r24
 a2c:	9f 91       	pop	r25
 a2e:	cf 91       	pop	r28
 a30:	0c 94 22 05 	jmp	0xa44	; 0xa44 <strrev>

00000a34 <__mulhi_const_10>:
 a34:	7a e0       	ldi	r23, 0x0A	; 10
 a36:	97 9f       	mul	r25, r23
 a38:	90 2d       	mov	r25, r0
 a3a:	87 9f       	mul	r24, r23
 a3c:	80 2d       	mov	r24, r0
 a3e:	91 0d       	add	r25, r1
 a40:	11 24       	eor	r1, r1
 a42:	08 95       	ret

00000a44 <strrev>:
 a44:	dc 01       	movw	r26, r24
 a46:	fc 01       	movw	r30, r24
 a48:	67 2f       	mov	r22, r23
 a4a:	71 91       	ld	r23, Z+
 a4c:	77 23       	and	r23, r23
 a4e:	e1 f7       	brne	.-8      	; 0xa48 <strrev+0x4>
 a50:	32 97       	sbiw	r30, 0x02	; 2
 a52:	04 c0       	rjmp	.+8      	; 0xa5c <strrev+0x18>
 a54:	7c 91       	ld	r23, X
 a56:	6d 93       	st	X+, r22
 a58:	70 83       	st	Z, r23
 a5a:	62 91       	ld	r22, -Z
 a5c:	ae 17       	cp	r26, r30
 a5e:	bf 07       	cpc	r27, r31
 a60:	c8 f3       	brcs	.-14     	; 0xa54 <strrev+0x10>
 a62:	08 95       	ret

00000a64 <__udivmodsi4>:
 a64:	a1 e2       	ldi	r26, 0x21	; 33
 a66:	1a 2e       	mov	r1, r26
 a68:	aa 1b       	sub	r26, r26
 a6a:	bb 1b       	sub	r27, r27
 a6c:	fd 01       	movw	r30, r26
 a6e:	0d c0       	rjmp	.+26     	; 0xa8a <__udivmodsi4_ep>

00000a70 <__udivmodsi4_loop>:
 a70:	aa 1f       	adc	r26, r26
 a72:	bb 1f       	adc	r27, r27
 a74:	ee 1f       	adc	r30, r30
 a76:	ff 1f       	adc	r31, r31
 a78:	a2 17       	cp	r26, r18
 a7a:	b3 07       	cpc	r27, r19
 a7c:	e4 07       	cpc	r30, r20
 a7e:	f5 07       	cpc	r31, r21
 a80:	20 f0       	brcs	.+8      	; 0xa8a <__udivmodsi4_ep>
 a82:	a2 1b       	sub	r26, r18
 a84:	b3 0b       	sbc	r27, r19
 a86:	e4 0b       	sbc	r30, r20
 a88:	f5 0b       	sbc	r31, r21

00000a8a <__udivmodsi4_ep>:
 a8a:	66 1f       	adc	r22, r22
 a8c:	77 1f       	adc	r23, r23
 a8e:	88 1f       	adc	r24, r24
 a90:	99 1f       	adc	r25, r25
 a92:	1a 94       	dec	r1
 a94:	69 f7       	brne	.-38     	; 0xa70 <__udivmodsi4_loop>
 a96:	60 95       	com	r22
 a98:	70 95       	com	r23
 a9a:	80 95       	com	r24
 a9c:	90 95       	com	r25
 a9e:	9b 01       	movw	r18, r22
 aa0:	ac 01       	movw	r20, r24
 aa2:	bd 01       	movw	r22, r26
 aa4:	cf 01       	movw	r24, r30
 aa6:	08 95       	ret

00000aa8 <_exit>:
 aa8:	f8 94       	cli

00000aaa <__stop_program>:
 aaa:	ff cf       	rjmp	.-2      	; 0xaaa <__stop_program>
